target datalayout = "e-m:e-p270:32:32-p271:32:32-p272:64:64-i64:64-i128:128-f80:128-n8:16:32:64-S128"
target triple = "x86_64-unknown-linux-gnu"

%"class.cvc5::internal::TypeNode" = type { ptr }
%"class.cvc5::internal::theory::quantifiers::SygusEnumerator::TermEnum.base" = type <{ ptr, ptr, %"class.cvc5::internal::TypeNode", i32 }>
%"class.cvc5::internal::theory::quantifiers::SygusEnumerator::TermEnumSlave" = type { %"class.cvc5::internal::theory::quantifiers::SygusEnumerator::TermEnum.base", i32, i8, i32, i32, i8, ptr }

; Function Attrs: mustprogress uwtable
define hidden noundef zeroext i1 @_ZN4cvc58internal6theory11quantifiers15SygusEnumerator13TermEnumSlave9incrementEv(ptr noundef nonnull align 8 dereferenceable(56) %this) unnamed_addr #4 align 2 {
entry:
  %this.addr = alloca ptr, align 8
  store ptr %this, ptr %this.addr, align 8
  %this1 = load ptr, ptr %this.addr, align 8
  %d_index = getelementptr inbounds %"class.cvc5::internal::theory::quantifiers::SygusEnumerator::TermEnumSlave", ptr %this1, i32 0, i32 3
  %0 = load i32, ptr %d_index, align 4
  %inc = add i32 %0, 1
  store i32 %inc, ptr %d_index, align 4
  %call = call noundef zeroext i1 @_ZN4cvc58internal6theory11quantifiers15SygusEnumerator13TermEnumSlave13validateIndexEv(ptr noundef nonnull align 8 dereferenceable(56) %this1)
  ret i1 %call
}