; Function Attrs: mustprogress uwtable
define hidden noundef zeroext i1 @_ZN4cvc58internal6theory11quantifiers15SygusEnumerator13TermEnumSlave9incrementEv(ptr noundef nonnull align 8 dereferenceable(56) %this) unnamed_addr #3 align 2 {
entry:
  %d_index = getelementptr inbounds i8, ptr %this, i64 36
  %0 = load i32, ptr %d_index, align 4
  %inc = add i32 %0, 1
  store i32 %inc, ptr %d_index, align 4
  %call = tail call noundef zeroext i1 @_ZN4cvc58internal6theory11quantifiers15SygusEnumerator13TermEnumSlave13validateIndexEv(ptr noundef nonnull align 8 dereferenceable(56) %this)
  ret i1 %call
}